; Function Attrs: nounwind uwtable
define ptr @l_Lean_Grind_CommRing_Poly_mulMon_x27(ptr noundef %0, ptr noundef %1, ptr noundef %2, ptr noundef %3) local_unnamed_addr #1 {
  %5 = ptrtoint ptr %3 to i64
  %6 = and i64 %5, 1
  %.not.i14 = icmp eq i64 %6, 0
  br i1 %.not.i14, label %10, label %7

7:                                                ; preds = %4
  %8 = lshr i64 %5, 1
  %9 = trunc i64 %8 to i32
  br label %lean_obj_tag.exit

10:                                               ; preds = %4
  %11 = getelementptr i8, ptr %3, i64 4
  %.val.i = load i32, ptr %11, align 4
  %12 = lshr i32 %.val.i, 24
  br label %lean_obj_tag.exit

lean_obj_tag.exit:                                ; preds = %7, %10
  %.0.i = phi i32 [ %9, %7 ], [ %12, %10 ]
  %13 = icmp eq i32 %.0.i, 0
  br i1 %13, label %14, label %16

14:                                               ; preds = %lean_obj_tag.exit
  %15 = tail call ptr @l_Lean_Grind_CommRing_Poly_mulMon(ptr noundef %1, ptr noundef %2, ptr noundef %0) #6
  br label %35

16:                                               ; preds = %lean_obj_tag.exit
  %17 = getelementptr inbounds nuw i8, ptr %3, i64 8
  %18 = load ptr, ptr %17, align 8, !tbaa !6
  %19 = ptrtoint ptr %18 to i64
  %20 = and i64 %19, 1
  %.not = icmp eq i64 %20, 0
  br i1 %.not, label %21, label %lean_inc.exit

21:                                               ; preds = %16
  %.val.i15 = load i32, ptr %18, align 4, !tbaa !10
  %22 = icmp sgt i32 %.val.i15, 0
  br i1 %22, label %23, label %25, !prof !5

23:                                               ; preds = %21
  %24 = add nuw i32 %.val.i15, 1
  store i32 %24, ptr %18, align 4, !tbaa !10
  br label %lean_inc.exit

25:                                               ; preds = %21
  %.not.i16 = icmp eq i32 %.val.i15, 0
  br i1 %.not.i16, label %lean_inc.exit, label %26

26:                                               ; preds = %25
  tail call void @lean_inc_ref_cold(ptr noundef nonnull %18) #6
  br label %lean_inc.exit

lean_inc.exit:                                    ; preds = %26, %25, %23, %16
  br i1 %.not.i14, label %27, label %lean_dec.exit

27:                                               ; preds = %lean_inc.exit
  %28 = load i32, ptr %3, align 4, !tbaa !10
  %29 = icmp sgt i32 %28, 1
  br i1 %29, label %30, label %32, !prof !5

30:                                               ; preds = %27
  %31 = add nsw i32 %28, -1
  store i32 %31, ptr %3, align 4, !tbaa !10
  br label %lean_dec.exit

32:                                               ; preds = %27
  %.not.i = icmp eq i32 %28, 0
  br i1 %.not.i, label %lean_dec.exit, label %33

33:                                               ; preds = %32
  tail call void @lean_dec_ref_cold(ptr noundef nonnull %3) #6
  br label %lean_dec.exit

lean_dec.exit:                                    ; preds = %33, %32, %30, %lean_inc.exit
  %34 = tail call ptr @l_Lean_Grind_CommRing_Poly_mulMonC(ptr noundef %1, ptr noundef %2, ptr noundef %0, ptr noundef %18) #6
  br label %35

35:                                               ; preds = %lean_dec.exit, %14
  %.0 = phi ptr [ %15, %14 ], [ %34, %lean_dec.exit ]
  ret ptr %.0
}